target datalayout = "e-m:e-p270:32:32-p271:32:32-p272:64:64-i64:64-i128:128-f80:128-n8:16:32:64-S128"
target triple = "x86_64-pc-linux-gnu"

%struct.Expr_ = type { ptr, %union.SourceSpan, i16, %union.anon.29 }
%union.SourceSpan = type { i64 }
%union.anon.29 = type { %struct.ExprAnySwitch }
%struct.ExprAnySwitch = type { i8, %union.anon.31 }
%union.anon.31 = type { %struct.anon.32 }
%struct.anon.32 = type { ptr, %union.SourceSpan, ptr }
%struct.ExprConst = type { i16, %union.anon.38 }
%union.anon.38 = type { %struct.Int }
%struct.Int = type { %struct.Int128_, i32 }
%struct.Int128_ = type { i64, i64 }

@.str.69 = private unnamed_addr constant [39 x i8] c"Expected a constant integer value < 7.\00", align 1

; Function Attrs: nounwind uwtable
define internal zeroext i1 @is_valid_atomicity(ptr noundef %0) #0 {
  %2 = alloca ptr, align 8
  %3 = alloca i1, align 1
  %4 = alloca ptr, align 8
  store ptr %0, ptr %4, align 8
  %5 = load ptr, ptr %4, align 8
  store ptr %5, ptr %2, align 8
  %6 = load ptr, ptr %2, align 8
  %7 = getelementptr inbounds %struct.Expr_, ptr %6, i32 0, i32 2
  %8 = load i16, ptr %7, align 8
  %9 = and i16 %8, 255
  %10 = zext i16 %9 to i32
  %11 = icmp eq i32 %10, 14
  br i1 %11, label %12, label %19

12:                                               ; preds = %1
  %13 = load ptr, ptr %2, align 8
  %14 = getelementptr inbounds %struct.Expr_, ptr %13, i32 0, i32 3
  %15 = load i16, ptr %14, align 8
  %16 = and i16 %15, 255
  %17 = zext i16 %16 to i32
  %18 = icmp eq i32 %17, 1
  br label %19

19:                                               ; preds = %12, %1
  %20 = phi i1 [ false, %1 ], [ %18, %12 ]
  br i1 %20, label %21, label %34

21:                                               ; preds = %19
  %22 = load ptr, ptr %4, align 8
  %23 = getelementptr inbounds %struct.Expr_, ptr %22, i32 0, i32 3
  %24 = getelementptr inbounds %struct.ExprConst, ptr %23, i32 0, i32 1
  %25 = call zeroext i1 @int_fits(ptr noundef byval(%struct.Int) align 8 %24, i32 noundef 8)
  br i1 %25, label %26, label %34

26:                                               ; preds = %21
  %27 = load ptr, ptr %4, align 8
  %28 = getelementptr inbounds %struct.Expr_, ptr %27, i32 0, i32 3
  %29 = getelementptr inbounds %struct.ExprConst, ptr %28, i32 0, i32 1
  %30 = getelementptr inbounds %struct.Int, ptr %29, i32 0, i32 0
  %31 = getelementptr inbounds %struct.Int128_, ptr %30, i32 0, i32 1
  %32 = load i64, ptr %31, align 8
  %33 = icmp ugt i64 %32, 6
  br i1 %33, label %34, label %41

34:                                               ; preds = %26, %21, %19
  br label %35

35:                                               ; preds = %34
  %36 = load ptr, ptr %4, align 8
  %37 = getelementptr inbounds %struct.Expr_, ptr %36, i32 0, i32 1
  %38 = getelementptr inbounds %union.SourceSpan, ptr %37, i32 0, i32 0
  %39 = load i64, ptr %38, align 8
  call void (i64, ptr, ...) @sema_error_at(i64 %39, ptr noundef @.str.69)
  store i1 false, ptr %3, align 1
  br label %42

40:                                               ; No predecessors!
  br label %41

41:                                               ; preds = %40, %26
  store i1 true, ptr %3, align 1
  br label %42

42:                                               ; preds = %41, %35
  %43 = load i1, ptr %3, align 1
  ret i1 %43
}