; Function Attrs: nounwind uwtable
define internal fastcc noundef zeroext i1 @is_valid_atomicity(ptr noundef %0) unnamed_addr #0 {
  %2 = getelementptr inbounds i8, ptr %0, i64 16
  %3 = load i16, ptr %2, align 8
  %4 = and i16 %3, 255
  %5 = icmp eq i16 %4, 14
  br i1 %5, label %6, label %.critedge

6:                                                ; preds = %1
  %7 = getelementptr inbounds i8, ptr %0, i64 24
  %8 = load i16, ptr %7, align 8
  %9 = and i16 %8, 255
  %10 = icmp eq i16 %9, 1
  br i1 %10, label %11, label %.critedge

11:                                               ; preds = %6
  %12 = getelementptr inbounds i8, ptr %0, i64 32
  %13 = tail call zeroext i1 @int_fits(ptr noundef nonnull byval(%struct.Int) align 8 %12, i32 noundef 8) #4
  br i1 %13, label %14, label %.critedge

14:                                               ; preds = %11
  %15 = getelementptr inbounds i8, ptr %0, i64 40
  %16 = load i64, ptr %15, align 8
  %17 = icmp ugt i64 %16, 6
  br i1 %17, label %.critedge, label %20

.critedge:                                        ; preds = %6, %11, %14, %1
  %18 = getelementptr inbounds i8, ptr %0, i64 8
  %19 = load i64, ptr %18, align 8
  tail call void (i64, ptr, ...) @sema_error_at(i64 %19, ptr noundef nonnull @.str.69) #4
  br label %20

20:                                               ; preds = %14, %.critedge
  %.0 = phi i1 [ false, %.critedge ], [ true, %14 ]
  ret i1 %.0
}